(dp0
S'users'
p1
(dp2
S'anonymous'
p3
(dp4
S'info'
p5
(dp6
S'ssl'
p7
NsS'password'
p8
NsS'authlevel'
p9
S'authlevel none'
p10
ssS'connectionHistory'
p11
(dp12
S'maxConnectionsStored'
p13
I10
sS'lastConnections'
p14
NsS'numConnections'
p15
(dp16
S'web'
p17
I0
sS'lbr'
p18
I0
sS'cli'
p19
I0
sssS'privileges'
p20
(dp21
S'motes'
p22
(dp23
S'*'
p24
(dp25
S'put'
p26
S'yes'
p27
sS'get'
p28
g27
sS'delete'
p29
g27
sssS'networks'
p30
(dp31
g24
(dp32
g28
g27
sssS'apps'
p33
(dp34
g24
(dp35
g26
g27
sg28
g27
sg29
g27
sssS'system'
p36
(dp37
g28
g27
ssS'testResults'
p38
(dp39
g24
(dp40
g28
g27
sg29
g27
ssssS'activeConnections'
p41
NsssS'firewall'
p42
(dp43
S'127.0.0.1_9900'
p44
(dp45
S'info'
p46
(dp47
S'defautRule'
p48
S'deny'
p49
ssS'rules'
p50
NssS'127.0.0.1_9901'
p51
(dp52
g46
(dp53
g48
g49
ssg50
Nsssg33
(dp54
S'DC2126A'
p55
(dp56
S'fromMote'
p57
(dp58
S'dataFields'
p59
(dp60
S'fieldFormats'
p61
S'>HLH'
p62
sS'fieldNames'
p63
(lp64
S'cmdId'
p65
aS'temperature'
p66
aS'adcValue'
p67
asssS'resource'
p68
I60102
sS'description'
p69
S'Received and parses data from a DC2126A board.'
p70
sS'transport'
p71
S'UDP'
p72
sS'toMote'
p73
(dp74
g59
(dp75
g61
Nsg63
NssssS'OAPTemperature'
p76
(dp77
g57
(dp78
g59
(dp79
g61
S'>h'
p80
sg63
(lp81
g66
asssg68
(I5
tp82
sg69
S'This application is built into the default SmartMesh IP mote firmware and reports temperature periodically.'
p83
sg71
S'OAP'
p84
sg73
(dp85
g59
(dp86
g61
S'>l'
p87
sg63
(lp88
S'rate'
p89
assssS'OAPLED'
p90
(dp91
g57
(dp92
g59
(dp93
g61
Nsg63
Nsssg68
(I2
I3
tp94
sg69
S'This application is built into the default SmartMesh IP mote firmware and turns an LED on/off.'
p95
sg71
g84
sg73
(dp96
g59
(dp97
g61
S'>b'
p98
sg63
(lp99
S'status'
p100
assssS'LIS331'
p101
(dp102
g57
(dp103
g59
(dp104
g61
S'>hhh'
p105
sg63
(lp106
S'x'
p107
aS'y'
p108
aS'z'
p109
asssg68
I60103
sg69
S'Receives and parses data from a mote running the LIS331 application.'
p110
sg71
g72
sg73
(dp111
g59
(dp112
g61
Nsg63
Nsssssg36
(dp113
g5
(dp114
S'starttimes'
p115
(dp116
S'laststarttimes'
p117
(dp118
F1451621424.1866641
NsF1451622170.1167049
NsF1430877539.328393
NssS'totalnumrestarts'
p119
I3
sS'maxnumrestartsstored'
p120
I10
ssS'adminpassword'
p121
S'd033e22ae348aeb5660fc2140aec35850c4da997'
p122
ssS'publishers'
p123
(dp124
S'xively'
p125
(dp126
S'xivelyApiKey'
p127
NssS'google'
p128
(dp129
S'worksheetName'
p130
NsS'googleUsername'
p131
NsS'googlePassword'
p132
NsS'spreadsheetKey'
p133
NsssS'managerConnections'
p134
(dp135
(S'127.0.0.1'
p136
I9900
tp137
(dp138
S'state'
p139
S'active'
p140
sS'reason'
p141
S''
p142
ss(S'127.0.0.1'
p143
I9901
tp144
(dp145
g139
g140
sg141
g142
sssS'demoMode'
p146
I01
sS'modules'
p147
(dp148
S'module LBR'
p149
S'off'
p150
sS'module GATEWAY'
p151
S'on'
p152
sS'module DATACONNECTOR'
p153
g152
ssS'systemevents'
p154
(dp155
S'default data loaded'
p156
F1451621424.1461411
sS'backup data loaded'
p157
F1430877539.2980609
ssS'persistence'
p158
(dp159
S'persistence file'
p160
g152
ssS'fastMode'
p161
I00
ssg38
(dp162
g44
(dp163
g46
(dp164
S'testperiod'
p165
I3600
ssS'results'
p166
(dp167
S'_nettest_oneSingleParentMote'
p168
(dp169
S'lastSuccess'
p170
(dp171
S'timestamp'
p172
F1430877605.0265369
sS'description'
p173
S'PASS:<br/>The following 0 motes have one parent only: '
p174
ssS'lastFailure'
p175
(dp176
g172
Nsg173
NssS'last'
p177
(dp178
g172
F1430877605.0265369
sS'outcome'
p179
S'PASS'
p180
sg173
g174
ssg173
S'\n        <p>\n            This test verifies that there is exactly mote with only one parent.\n        </p>\n        <p>\n            Graph theory indicates that, when building a bi-DAG, exactly one\n            node ends up with one parent (it will be a one-hop neighbor of the\n            root). This test verifies that this is the case in this network.\n        </p>\n        <p>\n            This test is run once for the whole network.\n        </p>\n        '
p181
sS'history'
p182
(lp183
g180
assS'_nettest_numLinks'
p184
(dp185
g170
(dp186
g172
F1430877605.0128839
sg173
S'PASS:<br/>AP 00-17-0d-00-00-60-35-dd has 0 RX links, less than maximum 140'
p187
ssg175
(dp188
g172
Nsg173
Nssg177
(dp189
g172
F1430877605.0128839
sg179
g180
sg173
g187
ssg173
S'\n        <p>\n            This test verifies that the number of links assigned to each mote\n            does not exceed the maximum limit.\n        </p>\n        <p>\n            The manager is never supposed to allocate more than MAX_AP_RXLINKS\n            receive links to the AP, nor more than MAX_MOTE_LINKS links (both\n            transmit and receive) for a non-AP mote.\n        </p>\n        <p>\n            This test is run once for each node in the network (both AP and\n            mote).\n        </p>\n        '
p190
sg182
(lp191
g180
assS'_nettest_multipleJoins'
p192
(dp193
g170
(dp194
g172
F1430877604.896239
sg173
S'PASS</b>:<br/>- 00-17-0d-00-00-60-35-dd has no numOperationalEvents parameters, but its state is 4'
p195
ssg175
(dp196
g172
Nsg173
Nssg177
(dp197
g172
F1430877604.896239
sg179
g180
sg173
g195
ssg173
S'\n        <p>\n            This test verifies that each mote has joined exactly once.\n        </p>\n        <p>\n            In a normal deployment, all motes should join exactly once. Joining\n            more than once may indicate a mote reset.\n        </p>\n        <p>\n            This test is run once for each node in the network (both AP and\n            mote).\n        </p>\n        '
p198
sg182
(lp199
g180
assS'_nettest_stabilityVsRssi'
p200
(dp201
g170
(dp202
g172
Nsg173
Nssg175
(dp203
g172
Nsg173
Nssg177
(dp204
g172
F1430877605.098691
sg179
S'NOTRUN'
p205
sg173
g142
ssg173
S'\n        <p>\n            This test verifies that stability of a path is plausible given its\n            RSSI.\n        </p>\n        <p>\n            In the absence of heavy interference, the is a straightforward\n            relationship between the RSSI and stability of a path:\n            <ul>\n                <li>if the RSSI is above THRES_HIGH_RSSI, the stability is\n                expected to be above THRES_HIGH_STAB.</li>\n                <li>if the RSSI is below THRES_LOW_RSSI, the stability is expected to\n                be below THRES_LOW_STAB.</li>\n            </ul>\n        </p>\n        <p>\n            The stability is calculated as the ratio between the number of\n            packets transmitted successfully and transmission attempts; it is\n            also known as Packet Delivery Ratio (PDR).\n        </p>\n        <p>\n            This test is run once for each path in the network over which at\n            least THRES_NUM_PACKETS packet have been transmitted.\n        </p>\n        '
p206
sg182
(lp207
g205
assS'_nettest_networkReliability'
p208
(dp209
g170
(dp210
g172
F1430877604.9350591
sg173
S'networkReliability=1.0 is better than the expected 0.999'
p211
ssg175
(dp212
g172
Nsg173
Nssg177
(dp213
g172
F1430877604.9350591
sg179
g180
sg173
g211
ssg173
S'\n        <p>\n            This test erifies that the overall network reliability is above \n            MIN_NETWORKRELIABILITY.\n        </p>\n        <p>\n            The network reliability is the portion of the packets injected into\n            the network that were received by their final destination. If the\n            network looses data, the network reliability goes down.\n        </p>\n        <p>\n            This test is run once for the whole network.\n        </p>\n        '
p214
sg182
(lp215
g180
assS'_nettest_numGoodNeighbors'
p216
(dp217
g170
(dp218
g172
Nsg173
Nssg175
(dp219
g172
F1430877604.9586201
sg173
S'FAIL:<br/>mote 00-17-0d-00-00-60-35-dd has 0 good neighbors, expected at least 3.'
p220
ssg177
(dp221
g172
F1430877604.9586201
sg179
S'FAIL'
p222
sg173
g220
ssg173
S'\n        <p>\n            This test verifies that each mote has enough good neighbors.\n        </p>\n        <p>\n            The manager can build a robust network if each mote in the network\n            has at least MIN_NUMGOODNEIGHBORS neighbors.\n        </p>\n        <p>\n            This test is run once for each mote in the network.\n        </p>\n        '
p223
sg182
(lp224
g222
assS'_nettest_networkAvailability'
p225
(dp226
g170
(dp227
g172
Nsg173
Nssg175
(dp228
g172
Nsg173
Nssg177
(dp229
g172
F1430877604.9245031
sg179
g205
sg173
S'This test could not run because no packets were sent in the network (yet?) (numTxOk==0 for the network) and so it is impossible to calculate a ratio.'
p230
ssg173
S"\n        <p>\n            This test verifies that the overall network availability is above \n            MIN_NETWORKAVAILABILITY.\n        </p>\n        <p>\n            The network availability is the portion of the packets generated by\n            the motes' apps, which were actually sent into the network. If the\n            protocol stack is busy, it will reject the application's data,\n            resulting in a lower availability.\n        </p>\n        <p>\n            This test is run once for the whole network.\n        </p>\n        "
p231
sg182
(lp232
g205
assS'_nettest_perMoteAvailability'
p233
(dp234
g170
(dp235
g172
Nsg173
Nssg175
(dp236
g172
Nsg173
Nssg177
(dp237
g172
F1430877605.0408731
sg179
g205
sg173
g142
ssg173
S"\n        <p>\n            This test verifies that the availability for each mote is above \n            MIN_MOTEAVAILABILITY.\n        </p>\n        <p>\n            The mote availability is the portion of the packets generated by\n            the mote's application which were actually sent into the network.\n            If the mote's protocol stack is busy, it will reject the\n            application's data, resulting in a lower availability.\n        </p>\n        <p>\n            This test is run once for each mote in the network.\n        </p>\n        "
p238
sg182
(lp239
g205
assssg51
(dp240
g46
(dp241
g165
I3600
ssg166
(dp242
g168
(dp243
g170
(dp244
g172
F1430877615.2158239
sg173
S'PASS:<br/>The following 0 motes have one parent only: '
p245
ssg175
(dp246
g172
Nsg173
Nssg177
(dp247
g172
F1430877615.2158239
sg179
g180
sg173
g245
ssg173
g181
sg182
(lp248
g180
assg184
(dp249
g170
(dp250
g172
F1430877615.1954949
sg173
S'PASS:<br/>AP 00-17-0d-00-00-30-0b-1a has 0 RX links, less than maximum 140'
p251
ssg175
(dp252
g172
Nsg173
Nssg177
(dp253
g172
F1430877615.1954949
sg179
g180
sg173
g251
ssg173
g190
sg182
(lp254
g180
assg192
(dp255
g170
(dp256
g172
F1430877615.09514
sg173
S'PASS</b>:<br/>- 00-17-0d-00-00-30-0b-1a has no numOperationalEvents parameters, but its state is 4'
p257
ssg175
(dp258
g172
Nsg173
Nssg177
(dp259
g172
F1430877615.09514
sg179
g180
sg173
g257
ssg173
g198
sg182
(lp260
g180
assg200
(dp261
g170
(dp262
g172
Nsg173
Nssg175
(dp263
g172
Nsg173
Nssg177
(dp264
g172
F1430877615.25896
sg179
g205
sg173
g142
ssg173
g206
sg182
(lp265
g205
assg208
(dp266
g170
(dp267
g172
F1430877615.149641
sg173
S'networkReliability=1.0 is better than the expected 0.999'
p268
ssg175
(dp269
g172
Nsg173
Nssg177
(dp270
g172
F1430877615.149641
sg179
g180
sg173
g268
ssg173
g214
sg182
(lp271
g180
assg216
(dp272
g170
(dp273
g172
Nsg173
Nssg175
(dp274
g172
F1430877615.1734459
sg173
S'FAIL:<br/>mote 00-17-0d-00-00-30-0b-1a has 0 good neighbors, expected at least 3.'
p275
ssg177
(dp276
g172
F1430877615.1734459
sg179
g222
sg173
g275
ssg173
g223
sg182
(lp277
g222
assg225
(dp278
g170
(dp279
g172
Nsg173
Nssg175
(dp280
g172
Nsg173
Nssg177
(dp281
g172
F1430877615.1283309
sg179
g205
sg173
S'This test could not run because no packets were sent in the network (yet?) (numTxOk==0 for the network) and so it is impossible to calculate a ratio.'
p282
ssg173
g231
sg182
(lp283
g205
assg233
(dp284
g170
(dp285
g172
Nsg173
Nssg175
(dp286
g172
Nsg173
Nssg177
(dp287
g172
F1430877615.2374921
sg179
g205
sg173
g142
ssg173
g238
sg182
(lp288
g205
asssssS'dataflows'
p289
(dp290
g44
(dp291
g46
(dp292
S'maxNumFlows'
p293
I100
sS'maxNumHistory'
p294
(dp295
g49
I10
sS'accept'
p296
I10
sS'error'
p297
I10
sssS'flows'
p298
Nssg51
(dp299
g46
(dp300
g293
I100
sg294
(dp301
g49
I10
sg296
I10
sg297
I10
sssg298
Nsssg30
(dp302
g44
(dp303
g46
NsS'paths'
p304
NsS'motes'
p305
(dp306
(I0
I23
I13
I0
I0
I96
I53
I221
tp307
Nsssg51
(dp308
g46
Nsg304
Nsg305
(dp309
(I0
I23
I13
I0
I0
I48
I11
I26
tp310
Nssssg22
(dp311
(I0
I23
I13
I0
I0
I96
I53
I221
tp312
(dp313
g46
(dp314
S'assignedBw'
p315
I0
sS'numGoodNbrs'
p316
I0
sS'requestedBw'
p317
I58500
sS'packetsReceived'
p318
I6
sS'totalNeededBw'
p319
I58500
sg139
I4
sS'isRouting'
p320
I01
sS'avgLatency'
p321
I0
sS'numNbrs'
p322
I0
sS'moteId'
p323
I1
sS'packetsLost'
p324
I0
sS'isAP'
p325
I01
ssg33
Nss(I0
I23
I13
I0
I0
I48
I11
I26
tp326
(dp327
g46
(dp328
g315
I0
sg316
I0
sg317
I55680
sg318
I6
sg319
I55680
sg139
I4
sg320
I01
sg321
I0
sg322
I0
sg323
I1
sg324
I0
sg325
I01
ssg33
Nsss.